target datalayout = "e-m:e-p270:32:32-p271:32:32-p272:64:64-i64:64-i128:128-f80:128-n8:16:32:64-S128"
target triple = "x86_64-pc-linux-gnu"

%struct.AVCodecContext = type { ptr, i32, i32, ptr, i32, i32, ptr, ptr, ptr, i64, i32, i32, ptr, i32, %struct.AVRational, %struct.AVRational, %struct.AVRational, i32, i32, i32, i32, i32, %struct.AVRational, i32, i32, i32, i32, i32, i32, i32, i32, i32, i32, i32, ptr, ptr, i32, float, float, float, float, float, float, float, float, float, i32, i32, i32, i32, i32, i32, i32, i32, i32, i32, i32, i32, ptr, ptr, ptr, i32, i32, i32, i32, i32, i32, i32, i32, i32, i32, %struct.AVChannelLayout, i32, i32, i32, i32, i32, i32, i32, i32, ptr, i32, i32, i32, float, float, i32, i32, i32, i32, i32, ptr, i64, i64, float, float, i32, i32, ptr, ptr, i32, i32, i32, i32, i32, ptr, ptr, ptr, ptr, i32, i32, [8 x i64], i32, i32, i32, i32, i32, i32, i32, ptr, ptr, i32, i32, i32, i32, i32, i32, i32, i32, i32, i32, ptr, ptr, i32, i32, ptr, ptr, ptr, ptr, i32, i32, i64, i32, i32, i64, ptr, i64, ptr, i32, ptr, i32 }
%struct.AVRational = type { i32, i32 }
%struct.AVChannelLayout = type { i32, i32, %union.anon.1, ptr }
%union.anon.1 = type { i64 }
%struct.VAAPIEncodeContext = type { %struct.FFHWBaseEncodeContext, ptr, i32, i32, i32, i32, i32, i32, ptr, ptr, i32, i32, i32, i32, i32, i32, [4 x %struct._VAConfigAttrib], i32, i32, i32, ptr, ptr, [4 x i32], [4 x ptr], [4 x i64], i32, %struct._VAEncMiscParameterRateControl, %struct._VAEncMiscParameterHRD, %struct._VAEncMiscParameterFrameRate, %struct._VAEncMiscParameterBufferMaxFrameSize, %struct._VAEncMiscParameterBufferQualityLevel, ptr, ptr, i32, i32, i32, i32, i32, i32, [20 x i32], [22 x i32], [21 x i32], [23 x i32], i32, i32, ptr, i32, i32 }
%struct.FFHWBaseEncodeContext = type { ptr, ptr, ptr, i32, i32, i32, i32, i32, i32, ptr, ptr, ptr, ptr, ptr, ptr, ptr, ptr, [2 x ptr], i32, i64, i64, i64, i64, i64, i64, i64, [112 x i64], i32, i32, i32, i32, i32, i32, i32, i32, i32, i32, i32, i32, i32, i32, i32, i32, ptr, i32, ptr, i32, ptr }
%struct._VAConfigAttrib = type { i32, i32 }
%struct._VAEncMiscParameterRateControl = type { i32, i32, i32, i32, i32, i32, %union.anon.2, i32, i32, i32, i32, [4 x i32] }
%union.anon.2 = type { %struct.anon }
%struct.anon = type { i32 }
%struct._VAEncMiscParameterHRD = type { i32, i32, [4 x i32] }
%struct._VAEncMiscParameterFrameRate = type { i32, %union.anon.3, [4 x i32] }
%union.anon.3 = type { %struct.anon.4 }
%struct.anon.4 = type { i32 }
%struct._VAEncMiscParameterBufferMaxFrameSize = type { i32, i32, [4 x i32] }
%struct._VAEncMiscParameterBufferQualityLevel = type { i32, [4 x i32] }
%struct._VAEncSequenceParameterBufferVP9 = type { i32, i32, i32, i32, i32, i32, i32, [4 x i32] }
%struct._VAEncPictureParameterBufferVP9 = type { i32, i32, i32, i32, i32, [8 x i32], i32, %union.anon.5, %union.anon.7, i8, i8, i8, i8, i8, i8, i8, [4 x i8], [2 x i8], i16, i16, i16, i16, i16, i16, i16, i8, i8, i8, i8, i32, [8 x i32] }
%union.anon.5 = type { %struct.anon.6 }
%struct.anon.6 = type { i32 }
%union.anon.7 = type { %struct.anon.8 }
%struct.anon.8 = type { i32 }

; Function Attrs: nounwind uwtable
define internal i32 @vaapi_encode_vp9_init_sequence_params(ptr noundef %0) #3 {
  %2 = alloca ptr, align 8
  %3 = alloca ptr, align 8
  %4 = alloca ptr, align 8
  %5 = alloca ptr, align 8
  %6 = alloca ptr, align 8
  store ptr %0, ptr %2, align 8, !tbaa !4
  call void @llvm.lifetime.start.p0(i64 8, ptr %3) #7
  %7 = load ptr, ptr %2, align 8, !tbaa !4
  %8 = getelementptr inbounds nuw %struct.AVCodecContext, ptr %7, i32 0, i32 6
  %9 = load ptr, ptr %8, align 8, !tbaa !9
  store ptr %9, ptr %3, align 8, !tbaa !52
  call void @llvm.lifetime.start.p0(i64 8, ptr %4) #7
  %10 = load ptr, ptr %2, align 8, !tbaa !4
  %11 = getelementptr inbounds nuw %struct.AVCodecContext, ptr %10, i32 0, i32 6
  %12 = load ptr, ptr %11, align 8, !tbaa !9
  store ptr %12, ptr %4, align 8, !tbaa !29
  call void @llvm.lifetime.start.p0(i64 8, ptr %5) #7
  %13 = load ptr, ptr %4, align 8, !tbaa !29
  %14 = getelementptr inbounds nuw %struct.VAAPIEncodeContext, ptr %13, i32 0, i32 31
  %15 = load ptr, ptr %14, align 8, !tbaa !73
  store ptr %15, ptr %5, align 8, !tbaa !74
  call void @llvm.lifetime.start.p0(i64 8, ptr %6) #7
  %16 = load ptr, ptr %4, align 8, !tbaa !29
  %17 = getelementptr inbounds nuw %struct.VAAPIEncodeContext, ptr %16, i32 0, i32 32
  %18 = load ptr, ptr %17, align 8, !tbaa !76
  store ptr %18, ptr %6, align 8, !tbaa !77
  %19 = load ptr, ptr %2, align 8, !tbaa !4
  %20 = getelementptr inbounds nuw %struct.AVCodecContext, ptr %19, i32 0, i32 18
  %21 = load i32, ptr %20, align 8, !tbaa !54
  %22 = load ptr, ptr %5, align 8, !tbaa !74
  %23 = getelementptr inbounds nuw %struct._VAEncSequenceParameterBufferVP9, ptr %22, i32 0, i32 0
  store i32 %21, ptr %23, align 4, !tbaa !79
  %24 = load ptr, ptr %2, align 8, !tbaa !4
  %25 = getelementptr inbounds nuw %struct.AVCodecContext, ptr %24, i32 0, i32 19
  %26 = load i32, ptr %25, align 4, !tbaa !56
  %27 = load ptr, ptr %5, align 8, !tbaa !74
  %28 = getelementptr inbounds nuw %struct._VAEncSequenceParameterBufferVP9, ptr %27, i32 0, i32 1
  store i32 %26, ptr %28, align 4, !tbaa !81
  %29 = load ptr, ptr %5, align 8, !tbaa !74
  %30 = getelementptr inbounds nuw %struct._VAEncSequenceParameterBufferVP9, ptr %29, i32 0, i32 2
  store i32 0, ptr %30, align 4, !tbaa !82
  %31 = load ptr, ptr %4, align 8, !tbaa !29
  %32 = getelementptr inbounds nuw %struct.VAAPIEncodeContext, ptr %31, i32 0, i32 13
  %33 = load i32, ptr %32, align 4, !tbaa !83
  %34 = and i32 %33, 16
  %35 = icmp ne i32 %34, 0
  br i1 %35, label %47, label %36

36:                                               ; preds = %1
  %37 = load ptr, ptr %4, align 8, !tbaa !29
  %38 = getelementptr inbounds nuw %struct.VAAPIEncodeContext, ptr %37, i32 0, i32 14
  %39 = load i32, ptr %38, align 8, !tbaa !84
  %40 = load ptr, ptr %5, align 8, !tbaa !74
  %41 = getelementptr inbounds nuw %struct._VAEncSequenceParameterBufferVP9, ptr %40, i32 0, i32 5
  store i32 %39, ptr %41, align 4, !tbaa !85
  %42 = load ptr, ptr %3, align 8, !tbaa !52
  %43 = getelementptr inbounds nuw %struct.FFHWBaseEncodeContext, ptr %42, i32 0, i32 27
  %44 = load i32, ptr %43, align 8, !tbaa !86
  %45 = load ptr, ptr %5, align 8, !tbaa !74
  %46 = getelementptr inbounds nuw %struct._VAEncSequenceParameterBufferVP9, ptr %45, i32 0, i32 6
  store i32 %44, ptr %46, align 4, !tbaa !87
  br label %47

47:                                               ; preds = %36, %1
  %48 = load ptr, ptr %2, align 8, !tbaa !4
  %49 = getelementptr inbounds nuw %struct.AVCodecContext, ptr %48, i32 0, i32 18
  %50 = load i32, ptr %49, align 8, !tbaa !54
  %51 = load ptr, ptr %6, align 8, !tbaa !77
  %52 = getelementptr inbounds nuw %struct._VAEncPictureParameterBufferVP9, ptr %51, i32 0, i32 0
  store i32 %50, ptr %52, align 4, !tbaa !88
  %53 = load ptr, ptr %2, align 8, !tbaa !4
  %54 = getelementptr inbounds nuw %struct.AVCodecContext, ptr %53, i32 0, i32 19
  %55 = load i32, ptr %54, align 4, !tbaa !56
  %56 = load ptr, ptr %6, align 8, !tbaa !77
  %57 = getelementptr inbounds nuw %struct._VAEncPictureParameterBufferVP9, ptr %56, i32 0, i32 1
  store i32 %55, ptr %57, align 4, !tbaa !91
  %58 = load ptr, ptr %2, align 8, !tbaa !4
  %59 = getelementptr inbounds nuw %struct.AVCodecContext, ptr %58, i32 0, i32 18
  %60 = load i32, ptr %59, align 8, !tbaa !54
  %61 = load ptr, ptr %6, align 8, !tbaa !77
  %62 = getelementptr inbounds nuw %struct._VAEncPictureParameterBufferVP9, ptr %61, i32 0, i32 2
  store i32 %60, ptr %62, align 4, !tbaa !92
  %63 = load ptr, ptr %2, align 8, !tbaa !4
  %64 = getelementptr inbounds nuw %struct.AVCodecContext, ptr %63, i32 0, i32 19
  %65 = load i32, ptr %64, align 4, !tbaa !56
  %66 = load ptr, ptr %6, align 8, !tbaa !77
  %67 = getelementptr inbounds nuw %struct._VAEncPictureParameterBufferVP9, ptr %66, i32 0, i32 3
  store i32 %65, ptr %67, align 4, !tbaa !93
  call void @llvm.lifetime.end.p0(i64 8, ptr %6) #7
  call void @llvm.lifetime.end.p0(i64 8, ptr %5) #7
  call void @llvm.lifetime.end.p0(i64 8, ptr %4) #7
  call void @llvm.lifetime.end.p0(i64 8, ptr %3) #7
  ret i32 0
}