; Function Attrs: mustprogress nofree norecurse nosync nounwind willreturn memory(readwrite, inaccessiblemem: none) uwtable
define internal noundef i32 @vaapi_encode_vp9_init_sequence_params(ptr noundef readonly captures(none) %0) #4 {
  %2 = getelementptr inbounds nuw i8, ptr %0, i64 32
  %3 = load ptr, ptr %2, align 8, !tbaa !4
  %4 = getelementptr inbounds nuw i8, ptr %3, i64 1568
  %5 = load ptr, ptr %4, align 8, !tbaa !66
  %6 = getelementptr inbounds nuw i8, ptr %3, i64 1576
  %7 = load ptr, ptr %6, align 8, !tbaa !67
  %8 = getelementptr inbounds nuw i8, ptr %0, i64 112
  %9 = load i32, ptr %8, align 8, !tbaa !48
  store i32 %9, ptr %5, align 4, !tbaa !68
  %10 = getelementptr inbounds nuw i8, ptr %0, i64 116
  %11 = load i32, ptr %10, align 4, !tbaa !50
  %12 = getelementptr inbounds nuw i8, ptr %5, i64 4
  store i32 %11, ptr %12, align 4, !tbaa !70
  %13 = getelementptr inbounds nuw i8, ptr %5, i64 8
  store i32 0, ptr %13, align 4, !tbaa !71
  %14 = getelementptr inbounds nuw i8, ptr %3, i64 1252
  %15 = load i32, ptr %14, align 4, !tbaa !72
  %16 = and i32 %15, 16
  %.not = icmp eq i32 %16, 0
  br i1 %.not, label %17, label %24

17:                                               ; preds = %1
  %18 = getelementptr inbounds nuw i8, ptr %3, i64 1256
  %19 = load i32, ptr %18, align 8, !tbaa !73
  %20 = getelementptr inbounds nuw i8, ptr %5, i64 20
  store i32 %19, ptr %20, align 4, !tbaa !74
  %21 = getelementptr inbounds nuw i8, ptr %3, i64 1088
  %22 = load i32, ptr %21, align 8, !tbaa !75
  %23 = getelementptr inbounds nuw i8, ptr %5, i64 24
  store i32 %22, ptr %23, align 4, !tbaa !76
  br label %24

24:                                               ; preds = %17, %1
  store i32 %9, ptr %7, align 4, !tbaa !77
  %25 = getelementptr inbounds nuw i8, ptr %7, i64 4
  store i32 %11, ptr %25, align 4, !tbaa !80
  %26 = getelementptr inbounds nuw i8, ptr %7, i64 8
  store i32 %9, ptr %26, align 4, !tbaa !81
  %27 = getelementptr inbounds nuw i8, ptr %7, i64 12
  store i32 %11, ptr %27, align 4, !tbaa !82
  ret i32 0
}